#include <math.h>
#include <stdio.h>
#include <stdlib.h>
#include <string.h>

int main()
{
    int j;
    char s[2][51];
    scanf("%s",s[0]);
    scanf("%s",s[1]);
    for(j=0;s[1][j+1]!='\0';j++)
	{
            if((s[0][0]==s[1][j])&&(s[0][1]==s[1][j+1]))
			{
                 printf("%d",j);
                 return 0;
			}
	}
    return 0;
}