; ModuleID = 'source-C-CXX/44/1818.c'
source_filename = "source-C-CXX/44/1818.c"
target datalayout = "e-m:e-p270:32:32-p271:32:32-p272:64:64-i64:64-f80:128-n8:16:32:64-S128"
target triple = "x86_64-pc-linux-gnu"

@.str = private unnamed_addr constant [3 x i8] c"%s\00", align 1
@.str.1 = private unnamed_addr constant [3 x i8] c"%d\00", align 1

; Function Attrs: nofree nounwind sspstrong uwtable
define dso_local i32 @main() local_unnamed_addr #0 {
  %1 = alloca [2 x [51 x i8]], align 16
  %2 = getelementptr inbounds [2 x [51 x i8]], [2 x [51 x i8]]* %1, i64 0, i64 0, i64 0
  call void @llvm.lifetime.start.p0i8(i64 102, i8* nonnull %2) #3
  %3 = call i32 (i8*, ...) @__isoc99_scanf(i8* getelementptr inbounds ([3 x i8], [3 x i8]* @.str, i64 0, i64 0), i8* nonnull %2)
  %4 = getelementptr inbounds [2 x [51 x i8]], [2 x [51 x i8]]* %1, i64 0, i64 1, i64 0
  %5 = call i32 (i8*, ...) @__isoc99_scanf(i8* getelementptr inbounds ([3 x i8], [3 x i8]* @.str, i64 0, i64 0), i8* nonnull %4)
  %6 = load i8, i8* %2, align 16
  %7 = getelementptr inbounds [2 x [51 x i8]], [2 x [51 x i8]]* %1, i64 0, i64 0, i64 1
  %8 = load i8, i8* %7, align 1
  %9 = getelementptr inbounds [2 x [51 x i8]], [2 x [51 x i8]]* %1, i64 0, i64 1, i64 1
  %10 = load i8, i8* %9, align 4, !tbaa !5
  %11 = icmp eq i8 %10, 0
  br i1 %11, label %30, label %12

12:                                               ; preds = %0, %24
  %13 = phi i64 [ %29, %24 ], [ 0, %0 ]
  %14 = phi i64 [ %25, %24 ], [ 1, %0 ]
  %15 = phi i8 [ %27, %24 ], [ %10, %0 ]
  %16 = getelementptr inbounds [2 x [51 x i8]], [2 x [51 x i8]]* %1, i64 0, i64 1, i64 %13
  %17 = load i8, i8* %16, align 1, !tbaa !5
  %18 = icmp eq i8 %6, %17
  %19 = icmp eq i8 %8, %15
  %20 = select i1 %18, i1 %19, i1 false
  br i1 %20, label %21, label %24

21:                                               ; preds = %12
  %22 = trunc i64 %13 to i32
  %23 = call i32 (i8*, ...) @printf(i8* nonnull dereferenceable(1) getelementptr inbounds ([3 x i8], [3 x i8]* @.str.1, i64 0, i64 0), i32 %22)
  br label %30

24:                                               ; preds = %12
  %25 = add nuw i64 %14, 1
  %26 = getelementptr inbounds [2 x [51 x i8]], [2 x [51 x i8]]* %1, i64 0, i64 1, i64 %25
  %27 = load i8, i8* %26, align 1, !tbaa !5
  %28 = icmp eq i8 %27, 0
  %29 = add nuw nsw i64 %13, 1
  br i1 %28, label %30, label %12, !llvm.loop !8

30:                                               ; preds = %24, %0, %21
  call void @llvm.lifetime.end.p0i8(i64 102, i8* nonnull %2) #3
  ret i32 0
}

; Function Attrs: argmemonly mustprogress nofree nosync nounwind willreturn
declare void @llvm.lifetime.start.p0i8(i64 immarg, i8* nocapture) #1

; Function Attrs: nofree nounwind
declare noundef i32 @__isoc99_scanf(i8* nocapture noundef readonly, ...) local_unnamed_addr #2

; Function Attrs: nofree nounwind
declare noundef i32 @printf(i8* nocapture noundef readonly, ...) local_unnamed_addr #2

; Function Attrs: argmemonly mustprogress nofree nosync nounwind willreturn
declare void @llvm.lifetime.end.p0i8(i64 immarg, i8* nocapture) #1


!llvm.module.flags = !{!0, !1, !2, !3}
!llvm.ident = !{!4}

!0 = !{i32 1, !"wchar_size", i32 4}
!1 = !{i32 7, !"PIC Level", i32 2}
!2 = !{i32 7, !"PIE Level", i32 2}
!3 = !{i32 7, !"uwtable", i32 1}
!4 = !{!"clang version 13.0.0"}
!5 = !{!6, !6, i64 0}
!6 = !{!"omnipotent char", !7, i64 0}
!7 = !{!"Simple C/C++ TBAA"}
!8 = distinct !{!8, !9}
!9 = !{!"llvm.loop.mustprogress"}
